target datalayout = "e-m:e-p270:32:32-p271:32:32-p272:64:64-i64:64-i128:128-f80:128-n8:16:32:64-S128"
target triple = "x86_64-pc-linux-gnu"

; Function Attrs: nounwind uwtable
define hidden i64 @_mi_strnlen(ptr noundef %0, i64 noundef %1) #0 {
  %3 = alloca i64, align 8
  %4 = alloca ptr, align 8
  %5 = alloca i64, align 8
  %6 = alloca i64, align 8
  store ptr %0, ptr %4, align 8, !tbaa !6
  store i64 %1, ptr %5, align 8, !tbaa !9
  %7 = load ptr, ptr %4, align 8, !tbaa !6
  %8 = icmp eq ptr %7, null
  br i1 %8, label %9, label %10

9:                                                ; preds = %2
  store i64 0, ptr %3, align 8
  br label %29

10:                                               ; preds = %2
  call void @llvm.lifetime.start.p0(i64 8, ptr %6) #5
  store i64 0, ptr %6, align 8, !tbaa !9
  br label %11

11:                                               ; preds = %24, %10
  %12 = load ptr, ptr %4, align 8, !tbaa !6
  %13 = load i64, ptr %6, align 8, !tbaa !9
  %14 = getelementptr inbounds nuw i8, ptr %12, i64 %13
  %15 = load i8, ptr %14, align 1, !tbaa !3
  %16 = sext i8 %15 to i32
  %17 = icmp ne i32 %16, 0
  br i1 %17, label %18, label %22

18:                                               ; preds = %11
  %19 = load i64, ptr %6, align 8, !tbaa !9
  %20 = load i64, ptr %5, align 8, !tbaa !9
  %21 = icmp ult i64 %19, %20
  br label %22

22:                                               ; preds = %18, %11
  %23 = phi i1 [ false, %11 ], [ %21, %18 ]
  br i1 %23, label %24, label %27

24:                                               ; preds = %22
  %25 = load i64, ptr %6, align 8, !tbaa !9
  %26 = add i64 %25, 1
  store i64 %26, ptr %6, align 8, !tbaa !9
  br label %11, !llvm.loop !16

27:                                               ; preds = %22
  %28 = load i64, ptr %6, align 8, !tbaa !9
  store i64 %28, ptr %3, align 8
  call void @llvm.lifetime.end.p0(i64 8, ptr %6) #5
  br label %29

29:                                               ; preds = %27, %9
  %30 = load i64, ptr %3, align 8
  ret i64 %30
}