; Function Attrs: nofree norecurse nosync nounwind memory(argmem: read) uwtable
define hidden i64 @_mi_strnlen(ptr noundef readonly %0, i64 noundef %1) local_unnamed_addr #1 {
  %3 = icmp eq ptr %0, null
  br i1 %3, label %.loopexit, label %.preheader

.preheader:                                       ; preds = %2, %.preheader
  %.0 = phi i64 [ %9, %.preheader ], [ 0, %2 ]
  %4 = getelementptr inbounds nuw i8, ptr %0, i64 %.0
  %5 = load i8, ptr %4, align 1, !tbaa !3
  %6 = icmp ne i8 %5, 0
  %7 = icmp ult i64 %.0, %1
  %8 = and i1 %7, %6
  %9 = add nuw i64 %.0, 1
  br i1 %8, label %.preheader, label %.loopexit, !llvm.loop !11

.loopexit:                                        ; preds = %.preheader, %2
  %.07 = phi i64 [ 0, %2 ], [ %.0, %.preheader ]
  ret i64 %.07
}